target datalayout = "e-m:e-p270:32:32-p271:32:32-p272:64:64-i64:64-i128:128-f80:128-n8:16:32:64-S128"
target triple = "x86_64-pc-linux-gnu"

%struct.OSQPMatrix_ = type { ptr, i32 }
%struct.OSQPVectorf_ = type { ptr, i64 }

; Function Attrs: nounwind uwtable
define void @OSQPMatrix_Axpy(ptr noundef %0, ptr noundef %1, ptr noundef %2, double noundef %3, double noundef %4) #0 {
  %6 = alloca ptr, align 8
  %7 = alloca ptr, align 8
  %8 = alloca ptr, align 8
  %9 = alloca double, align 8
  %10 = alloca double, align 8
  store ptr %0, ptr %6, align 8
  store ptr %1, ptr %7, align 8
  store ptr %2, ptr %8, align 8
  store double %3, ptr %9, align 8
  store double %4, ptr %10, align 8
  %11 = load ptr, ptr %6, align 8
  %12 = getelementptr inbounds %struct.OSQPMatrix_, ptr %11, i32 0, i32 1
  %13 = load i32, ptr %12, align 8
  %14 = icmp eq i32 %13, 0
  br i1 %14, label %15, label %27

15:                                               ; preds = %5
  %16 = load ptr, ptr %6, align 8
  %17 = getelementptr inbounds %struct.OSQPMatrix_, ptr %16, i32 0, i32 0
  %18 = load ptr, ptr %17, align 8
  %19 = load ptr, ptr %7, align 8
  %20 = getelementptr inbounds %struct.OSQPVectorf_, ptr %19, i32 0, i32 0
  %21 = load ptr, ptr %20, align 8
  %22 = load ptr, ptr %8, align 8
  %23 = getelementptr inbounds %struct.OSQPVectorf_, ptr %22, i32 0, i32 0
  %24 = load ptr, ptr %23, align 8
  %25 = load double, ptr %9, align 8
  %26 = load double, ptr %10, align 8
  call void @csc_Axpy(ptr noundef %18, ptr noundef %21, ptr noundef %24, double noundef %25, double noundef %26)
  br label %39

27:                                               ; preds = %5
  %28 = load ptr, ptr %6, align 8
  %29 = getelementptr inbounds %struct.OSQPMatrix_, ptr %28, i32 0, i32 0
  %30 = load ptr, ptr %29, align 8
  %31 = load ptr, ptr %7, align 8
  %32 = getelementptr inbounds %struct.OSQPVectorf_, ptr %31, i32 0, i32 0
  %33 = load ptr, ptr %32, align 8
  %34 = load ptr, ptr %8, align 8
  %35 = getelementptr inbounds %struct.OSQPVectorf_, ptr %34, i32 0, i32 0
  %36 = load ptr, ptr %35, align 8
  %37 = load double, ptr %9, align 8
  %38 = load double, ptr %10, align 8
  call void @csc_Axpy_sym_triu(ptr noundef %30, ptr noundef %33, ptr noundef %36, double noundef %37, double noundef %38)
  br label %39

39:                                               ; preds = %27, %15
  ret void
}