; Function Attrs: nounwind uwtable
define void @OSQPMatrix_Axpy(ptr nocapture noundef readonly %0, ptr nocapture noundef readonly %1, ptr nocapture noundef readonly %2, double noundef %3, double noundef %4) local_unnamed_addr #0 {
  %6 = getelementptr inbounds i8, ptr %0, i64 8
  %7 = load i32, ptr %6, align 8
  %8 = icmp eq i32 %7, 0
  %9 = load ptr, ptr %0, align 8
  %10 = load ptr, ptr %1, align 8
  %11 = load ptr, ptr %2, align 8
  br i1 %8, label %12, label %13

12:                                               ; preds = %5
  tail call void @csc_Axpy(ptr noundef %9, ptr noundef %10, ptr noundef %11, double noundef %3, double noundef %4) #7
  br label %14

13:                                               ; preds = %5
  tail call void @csc_Axpy_sym_triu(ptr noundef %9, ptr noundef %10, ptr noundef %11, double noundef %3, double noundef %4) #7
  br label %14

14:                                               ; preds = %13, %12
  ret void
}